target datalayout = "e-m:e-p270:32:32-p271:32:32-p272:64:64-i64:64-i128:128-f80:128-n8:16:32:64-S128"
target triple = "x86_64-pc-linux-gnu"

%struct.WebPPicture = type { i32, i32, i32, i32, ptr, ptr, ptr, i32, i32, ptr, i32, [2 x i32], ptr, i32, [3 x i32], ptr, ptr, i32, ptr, ptr, i32, ptr, ptr, [3 x i32], ptr, ptr, [8 x i32], ptr, ptr, [2 x ptr] }

@WebPMultARGBRow = external global ptr, align 8

; Function Attrs: nounwind uwtable
define dso_local i32 @WebPUnmultiplyARGB(ptr noundef %0) #0 {
  %2 = alloca i32, align 4
  %3 = alloca ptr, align 8
  %4 = alloca i32, align 4
  %5 = alloca ptr, align 8
  store ptr %0, ptr %3, align 8
  %6 = load ptr, ptr %3, align 8
  %7 = icmp eq ptr %6, null
  br i1 %7, label %18, label %8

8:                                                ; preds = %1
  %9 = load ptr, ptr %3, align 8
  %10 = getelementptr inbounds %struct.WebPPicture, ptr %9, i32 0, i32 0
  %11 = load i32, ptr %10, align 8
  %12 = icmp ne i32 %11, 1
  br i1 %12, label %18, label %13

13:                                               ; preds = %8
  %14 = load ptr, ptr %3, align 8
  %15 = getelementptr inbounds %struct.WebPPicture, ptr %14, i32 0, i32 12
  %16 = load ptr, ptr %15, align 8
  %17 = icmp eq ptr %16, null
  br i1 %17, label %18, label %19

18:                                               ; preds = %13, %8, %1
  store i32 0, ptr %2, align 4
  br label %45

19:                                               ; preds = %13
  call void @WebPInitAlphaProcessing()
  %20 = load ptr, ptr %3, align 8
  %21 = getelementptr inbounds %struct.WebPPicture, ptr %20, i32 0, i32 12
  %22 = load ptr, ptr %21, align 8
  store ptr %22, ptr %5, align 8
  store i32 0, ptr %4, align 4
  br label %23

23:                                               ; preds = %41, %19
  %24 = load i32, ptr %4, align 4
  %25 = load ptr, ptr %3, align 8
  %26 = getelementptr inbounds %struct.WebPPicture, ptr %25, i32 0, i32 3
  %27 = load i32, ptr %26, align 4
  %28 = icmp slt i32 %24, %27
  br i1 %28, label %29, label %44

29:                                               ; preds = %23
  %30 = load ptr, ptr @WebPMultARGBRow, align 8
  %31 = load ptr, ptr %5, align 8
  %32 = load ptr, ptr %3, align 8
  %33 = getelementptr inbounds %struct.WebPPicture, ptr %32, i32 0, i32 2
  %34 = load i32, ptr %33, align 8
  call void %30(ptr noundef %31, i32 noundef %34, i32 noundef 1)
  %35 = load ptr, ptr %3, align 8
  %36 = getelementptr inbounds %struct.WebPPicture, ptr %35, i32 0, i32 13
  %37 = load i32, ptr %36, align 8
  %38 = load ptr, ptr %5, align 8
  %39 = sext i32 %37 to i64
  %40 = getelementptr inbounds i32, ptr %38, i64 %39
  store ptr %40, ptr %5, align 8
  br label %41

41:                                               ; preds = %29
  %42 = load i32, ptr %4, align 4
  %43 = add nsw i32 %42, 1
  store i32 %43, ptr %4, align 4
  br label %23, !llvm.loop !13

44:                                               ; preds = %23
  store i32 1, ptr %2, align 4
  br label %45

45:                                               ; preds = %44, %18
  %46 = load i32, ptr %2, align 4
  ret i32 %46
}