; Function Attrs: nounwind uwtable
define dso_local range(i32 0, 2) i32 @WebPUnmultiplyARGB(ptr noundef readonly %0) local_unnamed_addr #1 {
  %2 = icmp eq ptr %0, null
  br i1 %2, label %.loopexit, label %3

3:                                                ; preds = %1
  %4 = load i32, ptr %0, align 8
  %.not = icmp eq i32 %4, 1
  br i1 %.not, label %5, label %.loopexit

5:                                                ; preds = %3
  %6 = getelementptr inbounds nuw i8, ptr %0, i64 72
  %7 = load ptr, ptr %6, align 8
  %8 = icmp eq ptr %7, null
  br i1 %8, label %.loopexit, label %9

9:                                                ; preds = %5
  tail call void @WebPInitAlphaProcessing() #6
  %10 = getelementptr inbounds nuw i8, ptr %0, i64 12
  %11 = load i32, ptr %10, align 4
  %12 = icmp sgt i32 %11, 0
  br i1 %12, label %.lr.ph, label %.loopexit

.lr.ph:                                           ; preds = %9
  %13 = load ptr, ptr %6, align 8
  %14 = getelementptr inbounds nuw i8, ptr %0, i64 8
  %15 = getelementptr inbounds nuw i8, ptr %0, i64 80
  br label %16

16:                                               ; preds = %.lr.ph, %16
  %.015 = phi ptr [ %13, %.lr.ph ], [ %21, %16 ]
  %.01114 = phi i32 [ 0, %.lr.ph ], [ %22, %16 ]
  %17 = load ptr, ptr @WebPMultARGBRow, align 8
  %18 = load i32, ptr %14, align 8
  tail call void %17(ptr noundef %.015, i32 noundef %18, i32 noundef 1) #6
  %19 = load i32, ptr %15, align 8
  %20 = sext i32 %19 to i64
  %21 = getelementptr inbounds i32, ptr %.015, i64 %20
  %22 = add nuw nsw i32 %.01114, 1
  %23 = load i32, ptr %10, align 4
  %24 = icmp slt i32 %22, %23
  br i1 %24, label %16, label %.loopexit, !llvm.loop !14

.loopexit:                                        ; preds = %16, %9, %1, %3, %5
  %.012 = phi i32 [ 0, %5 ], [ 0, %3 ], [ 0, %1 ], [ 1, %9 ], [ 1, %16 ]
  ret i32 %.012
}